target datalayout = "e-m:e-p270:32:32-p271:32:32-p272:64:64-i64:64-i128:128-f80:128-n8:16:32:64-S128"
target triple = "x86_64-pc-linux-gnu"

@.str.24 = private unnamed_addr constant [9 x i8] c"metadata\00", align 1
@.str.34 = private unnamed_addr constant [8 x i8] c"tagging\00", align 1

; Function Attrs: nounwind uwtable
define internal void @_metadata_presets_changed(ptr noundef %0, ptr noundef %1, ptr noundef %2) #0 {
  %4 = alloca ptr, align 8
  %5 = alloca ptr, align 8
  %6 = alloca ptr, align 8
  store ptr %0, ptr %4, align 8, !tbaa !75
  store ptr %1, ptr %5, align 8, !tbaa !75
  store ptr %2, ptr %6, align 8, !tbaa !6
  %7 = load ptr, ptr %5, align 8, !tbaa !75
  %8 = call i32 @g_strcmp0(ptr noundef %7, ptr noundef @.str.24)
  %9 = icmp ne i32 %8, 0
  br i1 %9, label %12, label %10

10:                                               ; preds = %3
  %11 = load ptr, ptr %6, align 8, !tbaa !6
  call void @_import_metadata_presets_update(ptr noundef %11)
  br label %19

12:                                               ; preds = %3
  %13 = load ptr, ptr %5, align 8, !tbaa !75
  %14 = call i32 @g_strcmp0(ptr noundef %13, ptr noundef @.str.34)
  %15 = icmp ne i32 %14, 0
  br i1 %15, label %18, label %16

16:                                               ; preds = %12
  %17 = load ptr, ptr %6, align 8, !tbaa !6
  call void @_import_tags_presets_update(ptr noundef %17)
  br label %18

18:                                               ; preds = %16, %12
  br label %19

19:                                               ; preds = %18, %10
  ret void
}