; Function Attrs: nounwind uwtable
define internal void @_metadata_presets_changed(ptr readnone captures(none) %0, ptr noundef %1, ptr noundef readonly captures(none) %2) #0 {
  %4 = tail call i32 @g_strcmp0(ptr noundef %1, ptr noundef nonnull @.str.24) #10
  %.not = icmp eq i32 %4, 0
  br i1 %.not, label %5, label %6

5:                                                ; preds = %3
  tail call fastcc void @_import_metadata_presets_update(ptr noundef %2)
  br label %9

6:                                                ; preds = %3
  %7 = tail call i32 @g_strcmp0(ptr noundef %1, ptr noundef nonnull @.str.34) #10
  %.not4 = icmp eq i32 %7, 0
  br i1 %.not4, label %8, label %9

8:                                                ; preds = %6
  tail call fastcc void @_import_tags_presets_update(ptr noundef %2)
  br label %9

9:                                                ; preds = %6, %8, %5
  ret void
}